target datalayout = "e-m:e-p270:32:32-p271:32:32-p272:64:64-i64:64-i128:128-f80:128-n8:16:32:64-S128"
target triple = "x86_64-pc-linux-gnu"

%struct.pointf_s = type { double, double }
%struct.GVJ_s = type { ptr, ptr, ptr, ptr, ptr, ptr, i32, ptr, ptr, ptr, ptr, i64, i64, ptr, i32, %struct.gvplugin_active_render_s, %struct.gvplugin_active_device_s, %struct.gvplugin_active_loadimage_t, ptr, %struct.pointf_s, i8, ptr, i32, ptr, i8, ptr, i32, i32, i32, %struct.point, %struct.point, %struct.point, %struct.point, %struct.point, i32, %struct.boxf, %struct.pointf_s, %struct.boxf, %struct.boxf, %struct.pointf_s, %struct.pointf_s, double, i32, %struct.pointf_s, %struct.boxf, %struct.pointf_s, %struct.pointf_s, i32, i32, %struct.box, %struct.box, %struct.pointf_s, %struct.pointf_s, %struct.pointf_s, i8, i8, i8, i8, i8, i8, %struct.pointf_s, %struct.pointf_s, ptr, ptr, ptr, ptr, ptr, ptr, i64, ptr }
%struct.gvplugin_active_render_s = type { ptr, i32, ptr, ptr }
%struct.gvplugin_active_device_s = type { ptr, i32, ptr, ptr }
%struct.gvplugin_active_loadimage_t = type { ptr, i32, ptr }
%struct.point = type { i32, i32 }
%struct.boxf = type { %struct.pointf_s, %struct.pointf_s }
%struct.box = type { %struct.point, %struct.point }

; Function Attrs: inlinehint nounwind uwtable
define internal void @argb2rgba(i64 noundef %0, i64 noundef %1, ptr noundef %2) #2 {
  %4 = alloca i64, align 8
  %5 = alloca i64, align 8
  %6 = alloca ptr, align 8
  %7 = alloca i64, align 8
  %8 = alloca i32, align 4
  %9 = alloca i64, align 8
  %10 = alloca i8, align 1
  %11 = alloca i8, align 1
  store i64 %0, ptr %4, align 8, !tbaa !34
  store i64 %1, ptr %5, align 8, !tbaa !34
  store ptr %2, ptr %6, align 8, !tbaa !31
  call void @llvm.lifetime.start.p0(i64 8, ptr %7) #8
  store i64 0, ptr %7, align 8, !tbaa !34
  br label %12

12:                                               ; preds = %42, %3
  %13 = load i64, ptr %7, align 8, !tbaa !34
  %14 = load i64, ptr %5, align 8, !tbaa !34
  %15 = icmp ult i64 %13, %14
  br i1 %15, label %17, label %16

16:                                               ; preds = %12
  store i32 2, ptr %8, align 4
  call void @llvm.lifetime.end.p0(i64 8, ptr %7) #8
  br label %45

17:                                               ; preds = %12
  call void @llvm.lifetime.start.p0(i64 8, ptr %9) #8
  store i64 0, ptr %9, align 8, !tbaa !34
  br label %18

18:                                               ; preds = %38, %17
  %19 = load i64, ptr %9, align 8, !tbaa !34
  %20 = load i64, ptr %4, align 8, !tbaa !34
  %21 = icmp ult i64 %19, %20
  br i1 %21, label %23, label %22

22:                                               ; preds = %18
  store i32 5, ptr %8, align 4
  call void @llvm.lifetime.end.p0(i64 8, ptr %9) #8
  br label %41

23:                                               ; preds = %18
  call void @llvm.lifetime.start.p0(i64 1, ptr %10) #8
  %24 = load ptr, ptr %6, align 8, !tbaa !31
  %25 = getelementptr inbounds i8, ptr %24, i64 2
  %26 = load i8, ptr %25, align 1, !tbaa !35
  store i8 %26, ptr %10, align 1, !tbaa !35
  call void @llvm.lifetime.start.p0(i64 1, ptr %11) #8
  %27 = load ptr, ptr %6, align 8, !tbaa !31
  %28 = getelementptr inbounds i8, ptr %27, i64 0
  %29 = load i8, ptr %28, align 1, !tbaa !35
  store i8 %29, ptr %11, align 1, !tbaa !35
  %30 = load i8, ptr %10, align 1, !tbaa !35
  %31 = load ptr, ptr %6, align 8, !tbaa !31
  %32 = getelementptr inbounds i8, ptr %31, i64 0
  store i8 %30, ptr %32, align 1, !tbaa !35
  %33 = load i8, ptr %11, align 1, !tbaa !35
  %34 = load ptr, ptr %6, align 8, !tbaa !31
  %35 = getelementptr inbounds i8, ptr %34, i64 2
  store i8 %33, ptr %35, align 1, !tbaa !35
  %36 = load ptr, ptr %6, align 8, !tbaa !31
  %37 = getelementptr inbounds i8, ptr %36, i64 4
  store ptr %37, ptr %6, align 8, !tbaa !31
  call void @llvm.lifetime.end.p0(i64 1, ptr %11) #8
  call void @llvm.lifetime.end.p0(i64 1, ptr %10) #8
  br label %38

38:                                               ; preds = %23
  %39 = load i64, ptr %9, align 8, !tbaa !34
  %40 = add i64 %39, 1
  store i64 %40, ptr %9, align 8, !tbaa !34
  br label %18, !llvm.loop !36

41:                                               ; preds = %22
  br label %42

42:                                               ; preds = %41
  %43 = load i64, ptr %7, align 8, !tbaa !34
  %44 = add i64 %43, 1
  store i64 %44, ptr %7, align 8, !tbaa !34
  br label %12, !llvm.loop !38

45:                                               ; preds = %16
  ret void
}

; Function Attrs: nounwind uwtable
define internal void @kitty_format(ptr noundef %0) #0 {
  %2 = alloca ptr, align 8
  %3 = alloca ptr, align 8
  %4 = alloca i64, align 8
  store ptr %0, ptr %2, align 8, !tbaa !3
  call void @llvm.lifetime.start.p0(i64 8, ptr %3) #8
  %5 = load ptr, ptr %2, align 8, !tbaa !3
  %6 = getelementptr inbounds nuw %struct.GVJ_s, ptr %5, i32 0, i32 25
  %7 = load ptr, ptr %6, align 8, !tbaa !8
  store ptr %7, ptr %3, align 8, !tbaa !31
  call void @llvm.lifetime.start.p0(i64 8, ptr %4) #8
  %8 = load ptr, ptr %2, align 8, !tbaa !3
  %9 = getelementptr inbounds nuw %struct.GVJ_s, ptr %8, i32 0, i32 47
  %10 = load i32, ptr %9, align 8, !tbaa !32
  %11 = load ptr, ptr %2, align 8, !tbaa !3
  %12 = getelementptr inbounds nuw %struct.GVJ_s, ptr %11, i32 0, i32 48
  %13 = load i32, ptr %12, align 4, !tbaa !33
  %14 = mul i32 %10, %13
  %15 = mul i32 %14, 4
  %16 = zext i32 %15 to i64
  store i64 %16, ptr %4, align 8, !tbaa !34
  %17 = load ptr, ptr %2, align 8, !tbaa !3
  %18 = getelementptr inbounds nuw %struct.GVJ_s, ptr %17, i32 0, i32 47
  %19 = load i32, ptr %18, align 8, !tbaa !32
  %20 = zext i32 %19 to i64
  %21 = load ptr, ptr %2, align 8, !tbaa !3
  %22 = getelementptr inbounds nuw %struct.GVJ_s, ptr %21, i32 0, i32 48
  %23 = load i32, ptr %22, align 4, !tbaa !33
  %24 = zext i32 %23 to i64
  %25 = load ptr, ptr %3, align 8, !tbaa !31
  call void @argb2rgba(i64 noundef %20, i64 noundef %24, ptr noundef %25)
  %26 = load ptr, ptr %3, align 8, !tbaa !31
  %27 = load i64, ptr %4, align 8, !tbaa !34
  %28 = load ptr, ptr %2, align 8, !tbaa !3
  %29 = getelementptr inbounds nuw %struct.GVJ_s, ptr %28, i32 0, i32 47
  %30 = load i32, ptr %29, align 8, !tbaa !32
  %31 = load ptr, ptr %2, align 8, !tbaa !3
  %32 = getelementptr inbounds nuw %struct.GVJ_s, ptr %31, i32 0, i32 48
  %33 = load i32, ptr %32, align 4, !tbaa !33
  call void @kitty_write(ptr noundef %26, i64 noundef %27, i32 noundef %30, i32 noundef %33, i1 noundef zeroext false)
  call void @llvm.lifetime.end.p0(i64 8, ptr %4) #8
  call void @llvm.lifetime.end.p0(i64 8, ptr %3) #8
  ret void
}