; Function Attrs: nounwind uwtable
define internal void @kitty_format(ptr noundef readonly captures(none) %0) #0 {
  %2 = getelementptr inbounds nuw i8, ptr %0, i64 272
  %3 = load ptr, ptr %2, align 8, !tbaa !3
  %4 = getelementptr inbounds nuw i8, ptr %0, i64 576
  %5 = load i32, ptr %4, align 8, !tbaa !30
  %6 = getelementptr inbounds nuw i8, ptr %0, i64 580
  %7 = load i32, ptr %6, align 4, !tbaa !31
  %8 = zext i32 %5 to i64
  %9 = zext i32 %7 to i64
  %.not.i = icmp eq i32 %7, 0
  %.not19.i = icmp eq i32 %5, 0
  %or.cond.i = or i1 %.not19.i, %.not.i
  br i1 %or.cond.i, label %argb2rgba.exit, label %.preheader.us.i

.preheader.us.i:                                  ; preds = %1, %._crit_edge.us.i
  %.017.us.i = phi ptr [ %14, %._crit_edge.us.i ], [ %3, %1 ]
  %.01216.us.i = phi i64 [ %16, %._crit_edge.us.i ], [ 0, %1 ]
  br label %10

10:                                               ; preds = %10, %.preheader.us.i
  %.115.us.i = phi ptr [ %.017.us.i, %.preheader.us.i ], [ %14, %10 ]
  %.01314.us.i = phi i64 [ 0, %.preheader.us.i ], [ %15, %10 ]
  %11 = getelementptr inbounds nuw i8, ptr %.115.us.i, i64 2
  %12 = load i8, ptr %11, align 1, !tbaa !32
  %13 = load i8, ptr %.115.us.i, align 1, !tbaa !32
  store i8 %12, ptr %.115.us.i, align 1, !tbaa !32
  store i8 %13, ptr %11, align 1, !tbaa !32
  %14 = getelementptr inbounds nuw i8, ptr %.115.us.i, i64 4
  %15 = add nuw nsw i64 %.01314.us.i, 1
  %exitcond.not.i = icmp eq i64 %15, %8
  br i1 %exitcond.not.i, label %._crit_edge.us.i, label %10, !llvm.loop !33

._crit_edge.us.i:                                 ; preds = %10
  %16 = add nuw nsw i64 %.01216.us.i, 1
  %exitcond21.not.i = icmp eq i64 %16, %9
  br i1 %exitcond21.not.i, label %argb2rgba.exit.loopexit, label %.preheader.us.i, !llvm.loop !35

argb2rgba.exit.loopexit:                          ; preds = %._crit_edge.us.i
  %.pre = load i32, ptr %4, align 8, !tbaa !30
  %.pre9 = load i32, ptr %6, align 4, !tbaa !31
  br label %argb2rgba.exit

argb2rgba.exit:                                   ; preds = %argb2rgba.exit.loopexit, %1
  %17 = phi i32 [ %.pre9, %argb2rgba.exit.loopexit ], [ %7, %1 ]
  %18 = phi i32 [ %.pre, %argb2rgba.exit.loopexit ], [ %5, %1 ]
  %19 = shl i32 %5, 2
  %20 = mul i32 %19, %7
  %21 = zext i32 %20 to i64
  tail call fastcc void @kitty_write(ptr noundef %3, i64 noundef %21, i32 noundef %18, i32 noundef %17, i1 noundef zeroext false)
  ret void
}